target datalayout = "e-m:e-p270:32:32-p271:32:32-p272:64:64-i64:64-i128:128-f80:128-n8:16:32:64-S128"
target triple = "x86_64-pc-linux-gnu"

%union.pthread_mutex_t = type { %struct.__pthread_mutex_s }
%struct.__pthread_mutex_s = type { i32, i32, i32, i32, i32, i16, i16, %struct.__pthread_internal_list }
%struct.__pthread_internal_list = type { ptr, ptr }
%struct.node_features_ops = type { ptr, ptr, ptr, ptr, ptr, ptr, ptr, ptr, ptr, ptr, ptr, ptr, ptr, ptr, ptr, ptr, ptr }
%struct.timeval = type { i64, i64 }
%struct.config_plugin_params_t = type { ptr, ptr }

@g_context_lock = internal global %union.pthread_mutex_t zeroinitializer, align 8
@.str.1 = private unnamed_addr constant [29 x i8] c"%s: pthread_mutex_lock(): %m\00", align 1
@g_context_cnt = internal global i32 -1, align 4
@ops = internal global ptr null, align 8
@.str.3 = private unnamed_addr constant [16 x i8] c"node_features.c\00", align 1
@.str.7 = private unnamed_addr constant [31 x i8] c"%s: pthread_mutex_unlock(): %m\00", align 1
@__func__.node_features_g_get_config = private unnamed_addr constant [27 x i8] c"node_features_g_get_config\00", align 1

; Function Attrs: nounwind uwtable
define dso_local ptr @node_features_g_get_config() #0 {
  %1 = alloca %struct.timeval, align 8
  %2 = alloca %struct.timeval, align 8
  %3 = alloca [20 x i8], align 16
  %4 = alloca i64, align 8
  %5 = alloca i32, align 4
  %6 = alloca i32, align 4
  %7 = alloca ptr, align 8
  %8 = alloca ptr, align 8
  %9 = alloca i32, align 4
  %10 = alloca i32, align 4
  call void @llvm.lifetime.start.p0(i64 16, ptr %1) #7
  call void @llvm.lifetime.start.p0(i64 16, ptr %2) #7
  call void @llvm.lifetime.start.p0(i64 20, ptr %3) #7
  call void @llvm.memset.p0.i64(ptr align 16 %3, i8 0, i64 20, i1 false)
  call void @llvm.lifetime.start.p0(i64 8, ptr %4) #7
  call void @llvm.lifetime.start.p0(i64 4, ptr %5) #7
  call void @llvm.lifetime.start.p0(i64 4, ptr %6) #7
  store i32 0, ptr %6, align 4
  call void @llvm.lifetime.start.p0(i64 8, ptr %7) #7
  store ptr null, ptr %7, align 8
  call void @llvm.lifetime.start.p0(i64 8, ptr %8) #7
  %11 = call i32 @gettimeofday(ptr noundef %1, ptr noundef null) #7
  %12 = load i32, ptr @g_context_cnt, align 4
  %13 = icmp sgt i32 %12, 0
  br i1 %13, label %14, label %16

14:                                               ; preds = %0
  %15 = call ptr @list_create(ptr noundef @destroy_config_plugin_params)
  store ptr %15, ptr %7, align 8
  br label %16

16:                                               ; preds = %14, %0
  br label %17

17:                                               ; preds = %16
  call void @llvm.lifetime.start.p0(i64 4, ptr %9) #7
  %18 = call i32 @pthread_mutex_lock(ptr noundef @g_context_lock) #7
  store i32 %18, ptr %9, align 4
  %19 = load i32, ptr %9, align 4
  %20 = icmp ne i32 %19, 0
  br i1 %20, label %21, label %24

21:                                               ; preds = %17
  %22 = load i32, ptr %9, align 4
  %23 = call ptr @__errno_location() #8
  store i32 %22, ptr %23, align 4
  call void (ptr, ...) @fatal_abort(ptr noundef @.str.1, ptr noundef @__func__.node_features_g_get_config) #9
  unreachable

24:                                               ; preds = %17
  call void @llvm.lifetime.end.p0(i64 4, ptr %9) #7
  br label %25

25:                                               ; preds = %24
  br label %26

26:                                               ; preds = %25
  store i32 0, ptr %5, align 4
  br label %27

27:                                               ; preds = %58, %26
  %28 = load i32, ptr %5, align 4
  %29 = load i32, ptr @g_context_cnt, align 4
  %30 = icmp slt i32 %28, %29
  br i1 %30, label %31, label %34

31:                                               ; preds = %27
  %32 = load i32, ptr %6, align 4
  %33 = icmp eq i32 %32, 0
  br label %34

34:                                               ; preds = %31, %27
  %35 = phi i1 [ false, %27 ], [ %33, %31 ]
  br i1 %35, label %36, label %61

36:                                               ; preds = %34
  %37 = call ptr @slurm_xcalloc(i64 noundef 1, i64 noundef 16, i1 noundef zeroext true, i1 noundef zeroext false, ptr noundef @.str.3, i32 noundef 580, ptr noundef @__func__.node_features_g_get_config)
  store ptr %37, ptr %8, align 8
  %38 = call ptr @list_create(ptr noundef @destroy_config_key_pair)
  %39 = load ptr, ptr %8, align 8
  %40 = getelementptr inbounds nuw %struct.config_plugin_params_t, ptr %39, i32 0, i32 1
  store ptr %38, ptr %40, align 8
  %41 = load ptr, ptr @ops, align 8
  %42 = load i32, ptr %5, align 4
  %43 = sext i32 %42 to i64
  %44 = getelementptr inbounds %struct.node_features_ops, ptr %41, i64 %43
  %45 = getelementptr inbounds nuw %struct.node_features_ops, ptr %44, i32 0, i32 16
  %46 = load ptr, ptr %45, align 8
  %47 = load ptr, ptr %8, align 8
  call void %46(ptr noundef %47)
  %48 = load ptr, ptr %8, align 8
  %49 = getelementptr inbounds nuw %struct.config_plugin_params_t, ptr %48, i32 0, i32 0
  %50 = load ptr, ptr %49, align 8
  %51 = icmp ne ptr %50, null
  br i1 %51, label %54, label %52

52:                                               ; preds = %36
  %53 = load ptr, ptr %8, align 8
  call void @destroy_config_plugin_params(ptr noundef %53)
  br label %57

54:                                               ; preds = %36
  %55 = load ptr, ptr %7, align 8
  %56 = load ptr, ptr %8, align 8
  call void @list_append(ptr noundef %55, ptr noundef %56)
  br label %57

57:                                               ; preds = %54, %52
  br label %58

58:                                               ; preds = %57
  %59 = load i32, ptr %5, align 4
  %60 = add nsw i32 %59, 1
  store i32 %60, ptr %5, align 4
  br label %27, !llvm.loop !30

61:                                               ; preds = %34
  br label %62

62:                                               ; preds = %61
  call void @llvm.lifetime.start.p0(i64 4, ptr %10) #7
  %63 = call i32 @pthread_mutex_unlock(ptr noundef @g_context_lock) #7
  store i32 %63, ptr %10, align 4
  %64 = load i32, ptr %10, align 4
  %65 = icmp ne i32 %64, 0
  br i1 %65, label %66, label %69

66:                                               ; preds = %62
  %67 = load i32, ptr %10, align 4
  %68 = call ptr @__errno_location() #8
  store i32 %67, ptr %68, align 4
  call void (ptr, ...) @fatal_abort(ptr noundef @.str.7, ptr noundef @__func__.node_features_g_get_config) #9
  unreachable

69:                                               ; preds = %62
  call void @llvm.lifetime.end.p0(i64 4, ptr %10) #7
  br label %70

70:                                               ; preds = %69
  br label %71

71:                                               ; preds = %70
  br label %72

72:                                               ; preds = %71
  %73 = call i32 @gettimeofday(ptr noundef %2, ptr noundef null) #7
  %74 = getelementptr inbounds [20 x i8], ptr %3, i64 0, i64 0
  call void @slurm_diff_tv_str(ptr noundef %1, ptr noundef %2, ptr noundef %74, i32 noundef 20, ptr noundef @__func__.node_features_g_get_config, i64 noundef 0, ptr noundef %4)
  br label %75

75:                                               ; preds = %72
  br label %76

76:                                               ; preds = %75
  %77 = load ptr, ptr %7, align 8
  call void @llvm.lifetime.end.p0(i64 8, ptr %8) #7
  call void @llvm.lifetime.end.p0(i64 8, ptr %7) #7
  call void @llvm.lifetime.end.p0(i64 4, ptr %6) #7
  call void @llvm.lifetime.end.p0(i64 4, ptr %5) #7
  call void @llvm.lifetime.end.p0(i64 8, ptr %4) #7
  call void @llvm.lifetime.end.p0(i64 20, ptr %3) #7
  call void @llvm.lifetime.end.p0(i64 16, ptr %2) #7
  call void @llvm.lifetime.end.p0(i64 16, ptr %1) #7
  ret ptr %77
}