; Function Attrs: nounwind uwtable
define dso_local ptr @node_features_g_get_config() local_unnamed_addr #0 {
  %1 = alloca %struct.timeval, align 8
  %2 = alloca %struct.timeval, align 8
  %3 = alloca [20 x i8], align 16
  %4 = alloca i64, align 8
  call void @llvm.lifetime.start.p0(i64 16, ptr nonnull %1) #9
  call void @llvm.lifetime.start.p0(i64 16, ptr nonnull %2) #9
  call void @llvm.lifetime.start.p0(i64 20, ptr nonnull %3) #9
  call void @llvm.memset.p0.i64(ptr noundef nonnull align 16 dereferenceable(20) %3, i8 0, i64 20, i1 false)
  call void @llvm.lifetime.start.p0(i64 8, ptr nonnull %4) #9
  %5 = call i32 @gettimeofday(ptr noundef nonnull %1, ptr noundef null) #9
  %6 = load i32, ptr @g_context_cnt, align 4
  %7 = icmp sgt i32 %6, 0
  br i1 %7, label %8, label %10

8:                                                ; preds = %0
  %9 = tail call ptr @list_create(ptr noundef nonnull @destroy_config_plugin_params) #9
  br label %10

10:                                               ; preds = %0, %8
  %.014 = phi ptr [ %9, %8 ], [ null, %0 ]
  %11 = tail call i32 @pthread_mutex_lock(ptr noundef nonnull @g_context_lock) #9
  %.not = icmp eq i32 %11, 0
  br i1 %.not, label %.preheader, label %14

.preheader:                                       ; preds = %10
  %12 = load i32, ptr @g_context_cnt, align 4
  %13 = icmp sgt i32 %12, 0
  br i1 %13, label %.lr.ph, label %._crit_edge

14:                                               ; preds = %10
  %15 = tail call ptr @__errno_location() #10
  store i32 %11, ptr %15, align 4
  tail call void (ptr, ...) @fatal_abort(ptr noundef nonnull @.str.1, ptr noundef nonnull @__func__.node_features_g_get_config) #11
  unreachable

.lr.ph:                                           ; preds = %.preheader, %25
  %indvars.iv = phi i64 [ %indvars.iv.next, %25 ], [ 0, %.preheader ]
  %16 = tail call ptr @slurm_xcalloc(i64 noundef 1, i64 noundef 16, i1 noundef zeroext true, i1 noundef zeroext false, ptr noundef nonnull @.str.3, i32 noundef 580, ptr noundef nonnull @__func__.node_features_g_get_config) #9
  %17 = tail call ptr @list_create(ptr noundef nonnull @destroy_config_key_pair) #9
  %18 = getelementptr inbounds nuw i8, ptr %16, i64 8
  store ptr %17, ptr %18, align 8
  %19 = load ptr, ptr @ops, align 8
  %20 = getelementptr inbounds nuw %struct.node_features_ops, ptr %19, i64 %indvars.iv, i32 16
  %21 = load ptr, ptr %20, align 8
  tail call void %21(ptr noundef %16) #9
  %22 = load ptr, ptr %16, align 8
  %.not18 = icmp eq ptr %22, null
  br i1 %.not18, label %23, label %24

23:                                               ; preds = %.lr.ph
  tail call void @destroy_config_plugin_params(ptr noundef nonnull %16) #9
  br label %25

24:                                               ; preds = %.lr.ph
  tail call void @list_append(ptr noundef %.014, ptr noundef nonnull %16) #9
  br label %25

25:                                               ; preds = %23, %24
  %indvars.iv.next = add nuw nsw i64 %indvars.iv, 1
  %26 = load i32, ptr @g_context_cnt, align 4
  %27 = sext i32 %26 to i64
  %28 = icmp slt i64 %indvars.iv.next, %27
  br i1 %28, label %.lr.ph, label %._crit_edge, !llvm.loop !28

._crit_edge:                                      ; preds = %25, %.preheader
  %29 = tail call i32 @pthread_mutex_unlock(ptr noundef nonnull @g_context_lock) #9
  %.not17 = icmp eq i32 %29, 0
  br i1 %.not17, label %32, label %30

30:                                               ; preds = %._crit_edge
  %31 = tail call ptr @__errno_location() #10
  store i32 %29, ptr %31, align 4
  tail call void (ptr, ...) @fatal_abort(ptr noundef nonnull @.str.7, ptr noundef nonnull @__func__.node_features_g_get_config) #11
  unreachable

32:                                               ; preds = %._crit_edge
  %33 = call i32 @gettimeofday(ptr noundef nonnull %2, ptr noundef null) #9
  call void @slurm_diff_tv_str(ptr noundef nonnull %1, ptr noundef nonnull %2, ptr noundef nonnull %3, i32 noundef 20, ptr noundef nonnull @__func__.node_features_g_get_config, i64 noundef 0, ptr noundef nonnull %4) #9
  call void @llvm.lifetime.end.p0(i64 8, ptr nonnull %4) #9
  call void @llvm.lifetime.end.p0(i64 20, ptr nonnull %3) #9
  call void @llvm.lifetime.end.p0(i64 16, ptr nonnull %2) #9
  call void @llvm.lifetime.end.p0(i64 16, ptr nonnull %1) #9
  ret ptr %.014
}